target datalayout = "e-m:e-p270:32:32-p271:32:32-p272:64:64-i64:64-i128:128-f80:128-n8:16:32:64-S128"
target triple = "x86_64-pc-linux-gnu"

%struct.H5G_link_table_t = type { i64, ptr }

@H5G_init_g = external global i8, align 1
@H5_libterm_g = external global i8, align 1

; Function Attrs: nounwind uwtable
define i32 @H5G__link_sort_table(ptr noundef %0, i32 noundef %1, i32 noundef %2) #0 {
  %4 = alloca ptr, align 8
  %5 = alloca i32, align 4
  %6 = alloca i32, align 4
  %7 = alloca i32, align 4
  store ptr %0, ptr %4, align 8, !tbaa !10
  store i32 %1, ptr %5, align 4, !tbaa !11
  store i32 %2, ptr %6, align 4, !tbaa !11
  call void @llvm.lifetime.start.p0(i64 4, ptr %7) #6
  store i32 0, ptr %7, align 4, !tbaa !11
  %8 = load i8, ptr @H5G_init_g, align 1, !tbaa !13, !range !15, !noundef !16
  %9 = trunc i8 %8 to i1
  br i1 %9, label %14, label %10

10:                                               ; preds = %3
  %11 = load i8, ptr @H5_libterm_g, align 1, !tbaa !13, !range !15, !noundef !16
  %12 = trunc i8 %11 to i1
  %13 = xor i1 %12, true
  br label %14

14:                                               ; preds = %10, %3
  %15 = phi i1 [ true, %3 ], [ %13, %10 ]
  %16 = xor i1 %15, true
  %17 = xor i1 %16, true
  %18 = zext i1 %17 to i32
  %19 = sext i32 %18 to i64
  %20 = call i64 @llvm.expect.i64(i64 %19, i64 1)
  %21 = icmp ne i64 %20, 0
  br i1 %21, label %22, label %83

22:                                               ; preds = %14
  %23 = load ptr, ptr %4, align 8, !tbaa !10
  %24 = getelementptr inbounds nuw %struct.H5G_link_table_t, ptr %23, i32 0, i32 0
  %25 = load i64, ptr %24, align 8, !tbaa !64
  %26 = icmp eq i64 0, %25
  br i1 %26, label %27, label %32

27:                                               ; preds = %22
  br label %28

28:                                               ; preds = %27
  %29 = load i32, ptr %7, align 4, !tbaa !11
  store i32 %29, ptr %7, align 4, !tbaa !11
  br label %82

30:                                               ; No predecessors!
  br label %31

31:                                               ; preds = %30
  br label %32

32:                                               ; preds = %31, %22
  %33 = load i32, ptr %5, align 4, !tbaa !11
  %34 = icmp eq i32 %33, 0
  br i1 %34, label %35, label %58

35:                                               ; preds = %32
  %36 = load i32, ptr %6, align 4, !tbaa !11
  %37 = icmp eq i32 %36, 0
  br i1 %37, label %38, label %45

38:                                               ; preds = %35
  %39 = load ptr, ptr %4, align 8, !tbaa !10
  %40 = getelementptr inbounds nuw %struct.H5G_link_table_t, ptr %39, i32 0, i32 1
  %41 = load ptr, ptr %40, align 8, !tbaa !66
  %42 = load ptr, ptr %4, align 8, !tbaa !10
  %43 = getelementptr inbounds nuw %struct.H5G_link_table_t, ptr %42, i32 0, i32 0
  %44 = load i64, ptr %43, align 8, !tbaa !64
  call void @qsort(ptr noundef %41, i64 noundef %44, i64 noundef 48, ptr noundef @H5G__link_cmp_name_inc)
  br label %57

45:                                               ; preds = %35
  %46 = load i32, ptr %6, align 4, !tbaa !11
  %47 = icmp eq i32 %46, 1
  br i1 %47, label %48, label %55

48:                                               ; preds = %45
  %49 = load ptr, ptr %4, align 8, !tbaa !10
  %50 = getelementptr inbounds nuw %struct.H5G_link_table_t, ptr %49, i32 0, i32 1
  %51 = load ptr, ptr %50, align 8, !tbaa !66
  %52 = load ptr, ptr %4, align 8, !tbaa !10
  %53 = getelementptr inbounds nuw %struct.H5G_link_table_t, ptr %52, i32 0, i32 0
  %54 = load i64, ptr %53, align 8, !tbaa !64
  call void @qsort(ptr noundef %51, i64 noundef %54, i64 noundef 48, ptr noundef @H5G__link_cmp_name_dec)
  br label %56

55:                                               ; preds = %45
  br label %56

56:                                               ; preds = %55, %48
  br label %57

57:                                               ; preds = %56, %38
  br label %81

58:                                               ; preds = %32
  %59 = load i32, ptr %6, align 4, !tbaa !11
  %60 = icmp eq i32 %59, 0
  br i1 %60, label %61, label %68

61:                                               ; preds = %58
  %62 = load ptr, ptr %4, align 8, !tbaa !10
  %63 = getelementptr inbounds nuw %struct.H5G_link_table_t, ptr %62, i32 0, i32 1
  %64 = load ptr, ptr %63, align 8, !tbaa !66
  %65 = load ptr, ptr %4, align 8, !tbaa !10
  %66 = getelementptr inbounds nuw %struct.H5G_link_table_t, ptr %65, i32 0, i32 0
  %67 = load i64, ptr %66, align 8, !tbaa !64
  call void @qsort(ptr noundef %64, i64 noundef %67, i64 noundef 48, ptr noundef @H5G__link_cmp_corder_inc)
  br label %80

68:                                               ; preds = %58
  %69 = load i32, ptr %6, align 4, !tbaa !11
  %70 = icmp eq i32 %69, 1
  br i1 %70, label %71, label %78

71:                                               ; preds = %68
  %72 = load ptr, ptr %4, align 8, !tbaa !10
  %73 = getelementptr inbounds nuw %struct.H5G_link_table_t, ptr %72, i32 0, i32 1
  %74 = load ptr, ptr %73, align 8, !tbaa !66
  %75 = load ptr, ptr %4, align 8, !tbaa !10
  %76 = getelementptr inbounds nuw %struct.H5G_link_table_t, ptr %75, i32 0, i32 0
  %77 = load i64, ptr %76, align 8, !tbaa !64
  call void @qsort(ptr noundef %74, i64 noundef %77, i64 noundef 48, ptr noundef @H5G__link_cmp_corder_dec)
  br label %79

78:                                               ; preds = %68
  br label %79

79:                                               ; preds = %78, %71
  br label %80

80:                                               ; preds = %79, %61
  br label %81

81:                                               ; preds = %80, %57
  br label %82

82:                                               ; preds = %81, %28
  br label %83

83:                                               ; preds = %82, %14
  call void @llvm.lifetime.end.p0(i64 4, ptr %7) #6
  ret i32 0
}