; Function Attrs: nofree nounwind uwtable
define noundef i32 @H5G__link_sort_table(ptr noundef readonly captures(none) %0, i32 noundef %1, i32 noundef %2) local_unnamed_addr #5 {
  %4 = load i8, ptr @H5G_init_g, align 1, !tbaa !3, !range !7, !noundef !8
  %5 = trunc nuw i8 %4 to i1
  %6 = load i8, ptr @H5_libterm_g, align 1, !range !7
  %7 = trunc nuw i8 %6 to i1
  %8 = xor i1 %7, true
  %9 = select i1 %5, i1 true, i1 %8
  br i1 %9, label %10, label %21, !prof !9

10:                                               ; preds = %3
  %11 = load i64, ptr %0, align 8, !tbaa !50
  %12 = icmp eq i64 %11, 0
  br i1 %12, label %21, label %13

13:                                               ; preds = %10
  %14 = icmp eq i32 %1, 0
  br i1 %14, label %15, label %17

15:                                               ; preds = %13
  switch i32 %2, label %21 [
    i32 0, label %.sink.split
    i32 1, label %16
  ]

16:                                               ; preds = %15
  br label %.sink.split

17:                                               ; preds = %13
  switch i32 %2, label %21 [
    i32 0, label %.sink.split
    i32 1, label %18
  ]

18:                                               ; preds = %17
  br label %.sink.split

.sink.split:                                      ; preds = %17, %15, %16, %18
  %H5G__link_cmp_corder_inc.sink = phi ptr [ @H5G__link_cmp_corder_dec, %18 ], [ @H5G__link_cmp_name_dec, %16 ], [ @H5G__link_cmp_name_inc, %15 ], [ @H5G__link_cmp_corder_inc, %17 ]
  %19 = getelementptr inbounds nuw i8, ptr %0, i64 8
  %20 = load ptr, ptr %19, align 8, !tbaa !53
  tail call void @qsort(ptr noundef %20, i64 noundef %11, i64 noundef 48, ptr noundef nonnull %H5G__link_cmp_corder_inc.sink) #9
  br label %21

21:                                               ; preds = %.sink.split, %17, %15, %10, %3
  ret i32 0
}